target datalayout = "e-m:e-p270:32:32-p271:32:32-p272:64:64-i64:64-i128:128-f80:128-n8:16:32:64-S128"
target triple = "x86_64-pc-linux-gnu"

%struct._zval_struct = type { %union._zend_value, %union.anon, %union.anon.2 }
%union._zend_value = type { i64 }
%union.anon = type { i32 }
%union.anon.2 = type { i32 }
%struct._zend_refcounted_h = type { i32, %union.anon.4 }
%union.anon.4 = type { i32 }
%struct._zend_string = type { %struct._zend_refcounted_h, i64, i64, [1 x i8] }

; Function Attrs: nounwind uwtable
define internal void @_zend_is_numeric(ptr noundef %0, ptr noundef %1) #0 {
  %3 = alloca i8, align 1
  %4 = alloca ptr, align 8
  %5 = alloca i64, align 8
  %6 = alloca ptr, align 8
  %7 = alloca ptr, align 8
  %8 = alloca i8, align 1
  %9 = alloca ptr, align 8
  %10 = alloca ptr, align 8
  %11 = alloca ptr, align 8
  %12 = alloca i64, align 8
  %13 = alloca ptr, align 8
  %14 = alloca ptr, align 8
  %15 = alloca i8, align 1
  %16 = alloca ptr, align 8
  %17 = alloca ptr, align 8
  %18 = alloca ptr, align 8
  store ptr %0, ptr %17, align 8
  store ptr %1, ptr %18, align 8
  %19 = load ptr, ptr %18, align 8
  store ptr %19, ptr %16, align 8
  %20 = load ptr, ptr %16, align 8
  %21 = getelementptr inbounds %struct._zval_struct, ptr %20, i32 0, i32 1
  %22 = load i8, ptr %21, align 8
  %23 = zext i8 %22 to i32
  switch i32 %23, label %82 [
    i32 4, label %24
    i32 5, label %24
    i32 6, label %31
  ]

24:                                               ; preds = %2, %2
  br label %25

25:                                               ; preds = %24
  br label %26

26:                                               ; preds = %25
  %27 = load ptr, ptr %17, align 8
  %28 = getelementptr inbounds %struct._zval_struct, ptr %27, i32 0, i32 1
  store i32 3, ptr %28, align 8
  br label %29

29:                                               ; preds = %26
  br label %89

30:                                               ; No predecessors!
  br label %89

31:                                               ; preds = %2
  %32 = load ptr, ptr %18, align 8
  %33 = getelementptr inbounds %struct._zval_struct, ptr %32, i32 0, i32 0
  %34 = load ptr, ptr %33, align 8
  %35 = getelementptr inbounds %struct._zend_string, ptr %34, i32 0, i32 3
  %36 = getelementptr inbounds [1 x i8], ptr %35, i64 0, i64 0
  %37 = load ptr, ptr %18, align 8
  %38 = getelementptr inbounds %struct._zval_struct, ptr %37, i32 0, i32 0
  %39 = load ptr, ptr %38, align 8
  %40 = getelementptr inbounds %struct._zend_string, ptr %39, i32 0, i32 2
  %41 = load i64, ptr %40, align 8
  store ptr %36, ptr %11, align 8
  store i64 %41, ptr %12, align 8
  store ptr null, ptr %13, align 8
  store ptr null, ptr %14, align 8
  store i8 0, ptr %15, align 1
  %42 = load ptr, ptr %11, align 8
  %43 = load i64, ptr %12, align 8
  %44 = load ptr, ptr %13, align 8
  %45 = load ptr, ptr %14, align 8
  %46 = load i8, ptr %15, align 1
  %47 = trunc i8 %46 to i1
  store ptr %42, ptr %4, align 8
  store i64 %43, ptr %5, align 8
  store ptr %44, ptr %6, align 8
  store ptr %45, ptr %7, align 8
  %48 = zext i1 %47 to i8
  store i8 %48, ptr %8, align 1
  store ptr null, ptr %9, align 8
  store ptr null, ptr %10, align 8
  %49 = load ptr, ptr %4, align 8
  %50 = load i8, ptr %49, align 1
  %51 = sext i8 %50 to i32
  %52 = icmp sgt i32 %51, 57
  br i1 %52, label %53, label %54

53:                                               ; preds = %31
  store i8 0, ptr %3, align 1
  br label %64

54:                                               ; preds = %31
  %55 = load ptr, ptr %4, align 8
  %56 = load i64, ptr %5, align 8
  %57 = load ptr, ptr %6, align 8
  %58 = load ptr, ptr %7, align 8
  %59 = load i8, ptr %8, align 1
  %60 = trunc i8 %59 to i1
  %61 = load ptr, ptr %9, align 8
  %62 = load ptr, ptr %10, align 8
  %63 = call zeroext i8 @_is_numeric_string_ex(ptr noundef %55, i64 noundef %56, ptr noundef %57, ptr noundef %58, i1 noundef zeroext %60, ptr noundef %61, ptr noundef %62) #11
  store i8 %63, ptr %3, align 1
  br label %64

64:                                               ; preds = %54, %53
  %65 = load i8, ptr %3, align 1
  %66 = icmp ne i8 %65, 0
  br i1 %66, label %67, label %74

67:                                               ; preds = %64
  br label %68

68:                                               ; preds = %67
  br label %69

69:                                               ; preds = %68
  %70 = load ptr, ptr %17, align 8
  %71 = getelementptr inbounds %struct._zval_struct, ptr %70, i32 0, i32 1
  store i32 3, ptr %71, align 8
  br label %72

72:                                               ; preds = %69
  br label %89

73:                                               ; No predecessors!
  br label %81

74:                                               ; preds = %64
  br label %75

75:                                               ; preds = %74
  br label %76

76:                                               ; preds = %75
  %77 = load ptr, ptr %17, align 8
  %78 = getelementptr inbounds %struct._zval_struct, ptr %77, i32 0, i32 1
  store i32 2, ptr %78, align 8
  br label %79

79:                                               ; preds = %76
  br label %89

80:                                               ; No predecessors!
  br label %81

81:                                               ; preds = %80, %73
  br label %89

82:                                               ; preds = %2
  br label %83

83:                                               ; preds = %82
  br label %84

84:                                               ; preds = %83
  %85 = load ptr, ptr %17, align 8
  %86 = getelementptr inbounds %struct._zval_struct, ptr %85, i32 0, i32 1
  store i32 2, ptr %86, align 8
  br label %87

87:                                               ; preds = %84
  br label %89

88:                                               ; No predecessors!
  br label %89

89:                                               ; preds = %88, %87, %81, %79, %72, %30, %29
  ret void
}

; Function Attrs: nounwind uwtable
define hidden void @zflf_is_numeric_1(ptr noundef %0, ptr noundef %1) #0 {
  %3 = alloca ptr, align 8
  %4 = alloca ptr, align 8
  %5 = alloca ptr, align 8
  store ptr %0, ptr %3, align 8
  store ptr %1, ptr %4, align 8
  %6 = load ptr, ptr %4, align 8
  store ptr %6, ptr %5, align 8
  %7 = load ptr, ptr %3, align 8
  %8 = load ptr, ptr %5, align 8
  call void @_zend_is_numeric(ptr noundef %7, ptr noundef %8)
  ret void
}