; Function Attrs: nounwind uwtable
define hidden void @zflf_is_numeric_1(ptr nocapture noundef writeonly %0, ptr nocapture noundef readonly %1) local_unnamed_addr #0 {
  %3 = getelementptr inbounds i8, ptr %1, i64 8
  %4 = load i8, ptr %3, align 8
  switch i8 %4, label %15 [
    i8 4, label %_zend_is_numeric.exit
    i8 5, label %_zend_is_numeric.exit
    i8 6, label %5
  ]

5:                                                ; preds = %2
  %6 = load ptr, ptr %1, align 8
  %7 = getelementptr inbounds i8, ptr %6, i64 24
  %8 = load i8, ptr %7, align 1
  %9 = icmp sgt i8 %8, 57
  br i1 %9, label %.critedge.i, label %10

10:                                               ; preds = %5
  %11 = getelementptr inbounds i8, ptr %6, i64 16
  %12 = load i64, ptr %11, align 8
  %13 = tail call zeroext i8 @_is_numeric_string_ex(ptr noundef nonnull %7, i64 noundef %12, ptr noundef null, ptr noundef null, i1 noundef zeroext false, ptr noundef null, ptr noundef null) #8
  %14 = icmp eq i8 %13, 0
  br i1 %14, label %.critedge.i, label %_zend_is_numeric.exit

.critedge.i:                                      ; preds = %10, %5
  br label %_zend_is_numeric.exit

15:                                               ; preds = %2
  br label %_zend_is_numeric.exit

_zend_is_numeric.exit:                            ; preds = %2, %2, %10, %.critedge.i, %15
  %.sink.i = phi i32 [ 2, %15 ], [ 2, %.critedge.i ], [ 3, %2 ], [ 3, %2 ], [ 3, %10 ]
  %16 = getelementptr inbounds i8, ptr %0, i64 8
  store i32 %.sink.i, ptr %16, align 8
  ret void
}